(dp1
S'output'
p2
S'missing "pass" in view'
p3
sS'layer'
p4
S'ParserContainer'
p5
sS'code'
p6
S'response.write(\'<!DOCTYPE html>\\r\\n<html lang="en">\\r\\n  <head>    \\r\\n    <meta charset="utf-8">\\r\\n    <meta http-equiv="X-UA-Compatible" content="IE=edge">\\r\\n    <meta name="viewport" content="width=device-width, initial-scale=1">\\r\\n    <link rel="stylesheet" type="text/css" href="\', escape=False)\nresponse.write(URL(\'static\',\'bootstrap/css/bootstrap.min.css\'))\nresponse.write(\'">\\r\\n    <link rel="stylesheet" href="\', escape=False)\nresponse.write(URL(\'static\',\'bootstrap/js/lightbox.min.css\'))\nresponse.write(\'">\\r\\n     <!-- Custom CSS -->\\r\\n    <link rel="stylesheet" type="text/css" href="\', escape=False)\nresponse.write(URL(\'static\',\'bootstrap/css/style.css\'))\nresponse.write(\'">\\r\\n\\r\\n    <title>bookIT - Book an affordable place to spend some time</title>\\r\\n  </head>\\r\\n  <body style="overflow-x: hidden;">\\r\\n   <nav class="navbar navbar-default top-navigation-bar">\\r\\n    <div class="container">\\r\\n      <!-- Brand and toggle get grouped for better mobile display -->\\r\\n      <div class="navbar-header">\\r\\n        <button type="button" class="navbar-toggle collapsed" data-toggle="collapse" \\r\\n        data-target="#bs-example-navbar-collapse-1" aria-expanded="false">\\r\\n          <span class="sr-only">Toggle navigation</span>\\r\\n          <span class="icon-bar"></span>\\r\\n          <span class="icon-bar"></span>\\r\\n          <span class="icon-bar"></span>\\r\\n        </button>\\r\\n        <a class="navbar-brand" href="#">\\r\\n          <h3>bookIT</h3>\\r\\n          <!-- <img src="img/logo.png" alt=\\\'Logo\\\'> -->\\r\\n        </a>\\r\\n      </div>\\r\\n\\r\\n      <!-- Collect the nav links, forms, and other content for toggling -->\\r\\n      <div class="collapse navbar-collapse" id="bs-example-navbar-collapse-1">\\r\\n        <ul class="nav navbar-nav navbar-right top-nav-links">\\r\\n          <li class="active"><a href="#">Home</a></li>\\r\\n          <li><a href="#">About</a></li>\\r\\n          <li><a href="#">Contact</a></li>\\r\\n          <li><a href="#">Login</a></li>\\r\\n          <li><a href="#" style="border: 1px solid; border-radius: 5px;">List a hotel</a></li>\\r\\n        </ul>\\r\\n      </div><!-- /.navbar-collapse -->\\r\\n    </div><!-- /.container-fluid -->\\r\\n    \\r\\n  </nav>\\r\\n  \\r\\n  <div class="container">\\r\\n    <div class="row">\\r\\n      <h2 style="text-align:center;">Hotel Name (3 stars)</h2>\\r\\n      <br>\\r\\n      <div class="col-md-7">\\r\\n        <h4></h4>\\r\\n      \', escape=False)\nif hotels:\n    response.write(\'\\r\\n      \', escape=False)\n    for hotel in hotels:\n        response.write(\'\\r\\n        <h4>Description \', escape=False)\n        response.write(db_description)\n        response.write(\'</h4>\\r\\n        <p>\\r\\n          Lorem, ipsum dolor sit amet consectetur adipisicing elit. Alias, ratione rerum blanditiis maxime tempore \\r\\n          quis ipsum, et in eveniet facilis ut fugit expedita soluta velit autem obcaecati corporis sed itaque.\\r\\n        </p>\\r\\n\\r\\n        <h4>Contact \', escape=False)\n        response.write(db_contactnumber)\n        response.write(\'</h4>\\r\\n        <p>05343534983</p>\\r\\n\\r\\n        <h4>Email \', escape=False)\n        response.write(db_email)\n        response.write(\'</h4>\\r\\n        <p>hotel@email.com</p>\\r\\n        \', escape=False)\n        pass\n    response.write(\'\\r\\n\\r\\n\\r\\n\\r\\n        \', escape=False)\n    if services:\n        response.write(\'\\r\\n        \', escape=False)\n        for service in services:\n            response.write(\'\\r\\n        <h3>Services:</h3>\\r\\n        <ul>\\r\\n          <li><a href="\', escape=False)\n            response.write(URL(\'static\', args=hotel_services.id))\n            response.write(\'">Service here</a></li>\\r\\n        </ul>\\r\\n      </div>\\r\\n      <div class="col-md-5">\\r\\n        <a href="\', escape=False)\n            response.write(URL(\'hotel_details\',args=hotel.id))\n            response.write(\'">\\r\\n        <div class="hotel-images">\\r\\n        \', escape=False)\n            image = getImage(hotel.id)\n            response.write(\'\\r\\n          <img src="\', escape=False)\n            response.write(URL(\'download\', args=image.file))\n            response.write(\'" alt="image of property" class="img-responsive"/>\\r\\n        </div>\\r\\n        \', escape=False)\n            pass\n        response.write(\'\\r\\n      </div>\\r\\n    </div>\\r\\n  </div>\\r\\n  \\r\\n    \\r\\n  <script src="\', escape=False)\n        response.write(URL(\'static\',\'bootstrap/js/jquery.js\'))\n        response.write(\'"></script>\\r\\n  <script src="\', escape=False)\n        response.write(URL(\'static\',\'bootstrap/js/bootstrap.js\'))\n        response.write(\'"></script>\\r\\n  <script src="\', escape=False)\n        response.write(URL(\'static\',\'bootstrap/js/lightbox.min.js\'))\n        response.write(\'"></script>\\r\\n  <script>\\r\\n    $(document).ready(function(){\\r\\n      lightbox.option({\\r\\n        \\\'fadeDuration\\\': 300,\\r\\n        \\\'imageFadeDuration\\\': 300\\r\\n      })\\r\\n    })\\r\\n  </script>\\r\\n</body> \\r\\n\\r\\n</html> \\r\\n\', escape=False)'
p7
sS'snapshot'
p8
(dp9
sS'traceback'
p10
S'None\n'
p11
s.