(dp1
S'output'
p2
S'missing "pass" in view'
p3
sS'layer'
p4
S'ParserContainer'
p5
sS'code'
p6
S'response.write(\'<!DOCTYPE html>\\n<html lang="en">\\n  <head>    \\n    <meta charset="utf-8">\\n    <meta http-equiv="X-UA-Compatible" content="IE=edge">\\n    <meta name="viewport" content="width=device-width, initial-scale=1">\\n\\n    <link rel="stylesheet" type="text/css" href="\', escape=False)\nresponse.write(URL(\'static\',\'bootstrap/css/bootstrap.min.css\'))\nresponse.write(\'">\\n     <!-- Custom CSS -->\\n    <link rel="stylesheet" type="text/css" href="\', escape=False)\nresponse.write(URL(\'static\',\'css/style.css\'))\nresponse.write(\'">\\n\\n    <title>bookIT - Book an affordable place to spend some time</title>\\n  </head>\\n  <body style="overflow-x: hidden;">\\n   <nav class="navbar navbar-default top-navigation-bar">\\n    <div class="container">\\n      <!-- Brand and toggle get grouped for better mobile display -->\\n      <div class="navbar-header">\\n        <button type="button" class="navbar-toggle collapsed" data-toggle="collapse" \\n        data-target="#bs-example-navbar-collapse-1" aria-expanded="false">\\n          <span class="sr-only">Toggle navigation</span>\\n          <span class="icon-bar"></span>\\n          <span class="icon-bar"></span>\\n          <span class="icon-bar"></span>\\n        </button>\\n        <a class="navbar-brand" href="#">\\n          <h3>bookIT</h3>\\n          <!-- <img src="img/logo.png" alt=\\\'Logo\\\'> -->\\n        </a>\\n      </div>\\n\\n      <!-- Collect the nav links, forms, and other content for toggling -->\\n      <div class="collapse navbar-collapse" id="bs-example-navbar-collapse-1">\\n        <ul class="nav navbar-nav navbar-right top-nav-links">\\n          <li class="active"><a href="#">Home</a></li>\\n          <li><a href="#">About</a></li>\\n          <li><a href="#">Contact</a></li>\\n          <li><a href="#">Login</a></li>\\n          <li><a href="#" style="border: 1px solid; border-radius: 5px;">List a hotel</a></li>\\n        </ul>\\n      </div><!-- /.navbar-collapse -->\\n    </div><!-- /.container-fluid -->\\n    \\n  </nav>\\n  <div class="hero-section">\\n    <div class="hero-cover">\\n      <div class=\\\'container\\\'>\\n        <div class=\\\'row hero-content\\\'>    \\n          <div class="container">\\n            <div class="row">\\n              <div class="col-md-7">\\n                <h1 class="banner-text">Find an affordable place to spend some time</h1>\\n                <h3 class="banner-text">Hotels, Guest Houses, Movie Houses, Hostels...</h3>\\n                <h4 class="banner-text">AFFORDABLE.CONVENIENT.CLASSY</h4>\\n                <br>\\n                <p>\\n                  <a href="" class="btn btn-danger btn-lg">List your hotel</a>\\n                </p>\\n              </div>\\n              <div class="col-md-5"></div>\\n            </div>\\n          </div>\\n        </div>\\n      </div>\\n    </div>\\n  </div>\\n\\n  <div class="container featured-properties">\\n    <div class="row">\\n      <h3 style="color: #337ab7">RECENT LISTINGS</h3>\\n      <br>\\n      <!-- Loop this to display featured properties -->\\n      <div class="col-md-4">\\n        \', escape=False)\nfor hotel in hotels:\n    response.write(\'\\n                    <tr>\\n                      <td>\', escape=False)\n    response.write(hotel.db_hotel_name)\n    response.write(\'</td>\\n                      <td width="250">\', escape=False)\n    response.write(hotel.db_description)\n    response.write(\'</td>\\n                      <td>\', escape=False)\n    response.write(hotel.db_hotelclass)\n    response.write(\'</td>\\n                      <td>\', escape=False)\n    response.write(hotel.db_contactnumber)\n    response.write(\'</td>\\n                      <td>\', escape=False)\n    response.write(hotel.db_rooms)\n    response.write(\'</td>\\n                      <td>\', escape=False)\n    response.write(hotel.db_minimumprice)\n    response.write(\'</td>\\n                      <td>\', escape=False)\n    response.write(hotel.db_email)\n    response.write(\'</td>\\n                      <td>\\n                        <a href="\', escape=False)\n    response.write(URL(\'editdetails\', args=hotel.id))\n    response.write(\'" class="btn btn-primary">edit</a>\\n                        <a href="\', escape=False)\n    response.write(URL(\'delete\', args=hotel.id))\n    response.write(\'" class="btn btn-danger">delete</a>\\n                      </td>\\n                    </tr>\\n        <a href="">\\n          <div class="featured-item">\\n            <img src="img/airport1.jpe" alt="image of property" class="img-responsive">\\n            <hr>\\n            <h4>Hotel Name</h4>\\n            <p>\\n              Lorem ipsum dolor sit amet consectetur adipisicing elit. \\n              Explicabo quos ullam reprehenderit ab \\n            </p>\\n            <p>Rating: 4 Stars</p>\\n            <p>GHS40 / hour</p>\\n          </div>\\n        </a>\\n      </div>\\n      <!-- loop ends here -->\\n\\n      <div class="col-md-4">\\n        <a href="">\\n          <div class="featured-item">\\n            <img src="img/airport1.jpe" alt="image of property" class="img-responsive">\\n            <hr>\\n            <h4>Hotel Name</h4>\\n            <p>\\n              Lorem ipsum dolor sit amet consectetur adipisicing elit. \\n              Explicabo quos ullam reprehenderit ab \\n            </p>\\n            <p>Rating: 4 Stars</p>\\n            <p>GHS40 / hour</p>\\n          </div>\\n        </a>\\n      </div>\\n      <div class="col-md-4">\\n        <a href="">\\n          <div class="featured-item">\\n            <img src="img/airport1.jpe" alt="image of property" class="img-responsive">\\n            <hr>\\n            <h4>Hotel Name</h4>\\n            <p>\\n              Lorem ipsum dolor sit amet consectetur adipisicing elit. \\n              Explicabo quos ullam reprehenderit ab \\n            </p>\\n            <p>Rating: 4 Stars</p>\\n            <p>GHS40 / hour</p>\\n          </div>\\n        </a>\\n      </div>\\n    </div>\\n  </div>\\n  \\n    \\n  <script src="bootstrap/js/jquery.js"></script>\\n  <script src="bootstrap/js/bootstrap.js"></script>\\n</body> \\n\\n</html> \\n\', escape=False)'
p7
sS'snapshot'
p8
(dp9
sS'traceback'
p10
S'None\n'
p11
s.